; Function Attrs: mustprogress nofree norecurse nosync nounwind willreturn memory(readwrite, inaccessiblemem: none) uwtable
define internal noundef i32 @fQB2(double %0, ptr noundef readonly captures(none) %1, ptr noundef readonly captures(none) %2, ptr noundef readonly captures(none) %3, ptr noundef readonly captures(none) %4, ptr noundef readonly captures(none) %5) #4 {
  %7 = getelementptr inbounds nuw i8, ptr %5, i64 8
  %8 = load double, ptr %7, align 8, !tbaa !11
  %9 = load ptr, ptr %1, align 8, !tbaa !18
  %10 = getelementptr inbounds nuw i8, ptr %9, i64 16
  %11 = load ptr, ptr %10, align 8, !tbaa !21
  %12 = load double, ptr %11, align 8, !tbaa !26
  %13 = getelementptr inbounds nuw i8, ptr %11, i64 8
  %14 = load double, ptr %13, align 8, !tbaa !26
  %15 = getelementptr inbounds nuw i8, ptr %11, i64 16
  %16 = load double, ptr %15, align 8, !tbaa !26
  %17 = getelementptr inbounds nuw i8, ptr %2, i64 8
  %18 = load ptr, ptr %17, align 8, !tbaa !16
  %19 = load ptr, ptr %18, align 8, !tbaa !18
  %20 = getelementptr inbounds nuw i8, ptr %19, i64 16
  %21 = load ptr, ptr %20, align 8, !tbaa !21
  %22 = load double, ptr %21, align 8, !tbaa !26
  %23 = getelementptr inbounds nuw i8, ptr %21, i64 8
  %24 = load double, ptr %23, align 8, !tbaa !26
  %25 = getelementptr inbounds nuw i8, ptr %21, i64 16
  %26 = load double, ptr %25, align 8, !tbaa !26
  %27 = load ptr, ptr %3, align 8, !tbaa !18
  %28 = getelementptr inbounds nuw i8, ptr %27, i64 16
  %29 = load ptr, ptr %28, align 8, !tbaa !21
  %30 = load double, ptr %29, align 8, !tbaa !26
  %31 = getelementptr inbounds nuw i8, ptr %29, i64 16
  %32 = load double, ptr %31, align 8, !tbaa !26
  %33 = getelementptr inbounds nuw i8, ptr %29, i64 24
  %34 = load double, ptr %33, align 8, !tbaa !26
  %35 = getelementptr inbounds nuw i8, ptr %29, i64 40
  %36 = load double, ptr %35, align 8, !tbaa !26
  %37 = fneg double %12
  %38 = fmul double %12, %37
  %39 = fmul double %38, %30
  %40 = load ptr, ptr %4, align 8, !tbaa !18
  %41 = getelementptr inbounds nuw i8, ptr %40, i64 16
  %42 = load ptr, ptr %41, align 8, !tbaa !21
  store double %39, ptr %42, align 8, !tbaa !26
  %43 = fmul double %8, -2.000000e+00
  %44 = fmul double %43, %14
  %45 = fmul double %44, %16
  %46 = fmul double %45, %32
  %47 = getelementptr inbounds nuw i8, ptr %42, i64 8
  store double %46, ptr %47, align 8, !tbaa !26
  %48 = fmul double %30, 2.000000e+00
  %49 = fmul double %12, %48
  %50 = fneg double %22
  %51 = fmul double %49, %50
  %52 = tail call double @llvm.fmuladd.f64(double %38, double %34, double %51)
  %53 = getelementptr inbounds nuw i8, ptr %42, i64 16
  store double %52, ptr %53, align 8, !tbaa !26
  %54 = fmul double %32, 2.000000e+00
  %55 = fmul double %8, %16
  %56 = fmul double %8, %14
  %57 = fmul double %56, %26
  %58 = tail call double @llvm.fmuladd.f64(double %55, double %24, double %57)
  %59 = tail call double @llvm.fmuladd.f64(double %14, double %16, double %58)
  %60 = fneg double %59
  %61 = fmul double %54, %60
  %62 = tail call double @llvm.fmuladd.f64(double %45, double %36, double %61)
  %63 = getelementptr inbounds nuw i8, ptr %42, i64 24
  store double %62, ptr %63, align 8, !tbaa !26
  ret i32 0
}